target datalayout = "e-m:e-p270:32:32-p271:32:32-p272:64:64-i64:64-i128:128-f80:128-n8:16:32:64-S128"
target triple = "x86_64-pc-linux-gnu"

%"class.std::__cxx11::basic_string" = type { %"struct.std::__cxx11::basic_string<char>::_Alloc_hider", i64, %union.anon }
%"struct.std::__cxx11::basic_string<char>::_Alloc_hider" = type { ptr }
%union.anon = type { i64, [8 x i8] }
%"class.std::__cxx11::basic_stringstream" = type { %"class.std::basic_iostream.base", %"class.std::__cxx11::basic_stringbuf", %"class.std::basic_ios" }
%"class.std::basic_iostream.base" = type { %"class.std::basic_istream.base", %"class.std::basic_ostream.base" }
%"class.std::basic_istream.base" = type { ptr, i64 }
%"class.std::basic_ostream.base" = type { ptr }
%"class.std::__cxx11::basic_stringbuf" = type { %"class.std::basic_streambuf", i32, %"class.std::__cxx11::basic_string" }
%"class.std::basic_streambuf" = type { ptr, ptr, ptr, ptr, ptr, ptr, ptr, %"class.std::locale" }
%"class.std::locale" = type { ptr }
%"class.std::basic_ios" = type { %"class.std::ios_base", ptr, i8, i8, ptr, ptr, ptr, ptr }
%"class.std::ios_base" = type { ptr, i64, i64, i32, i32, i32, ptr, %"struct.std::ios_base::_Words", [8 x %"struct.std::ios_base::_Words"], i32, ptr, %"class.std::locale" }
%"struct.std::ios_base::_Words" = type { ptr, i64 }

@.str.124 = private unnamed_addr constant [2 x i8] c" \00", align 1
@.str.127 = private unnamed_addr constant [3 x i8] c";\0A\00", align 1
@.str.377 = private unnamed_addr constant [2 x i8] c"[\00", align 1
@.str.383 = private unnamed_addr constant [2 x i8] c"*\00", align 1
@.str.384 = private unnamed_addr constant [5 x i8] c" = 0\00", align 1
@.str.385 = private unnamed_addr constant [2 x i8] c"]\00", align 1
@.str.386 = private unnamed_addr constant [4 x i8] c" = \00", align 1

; Function Attrs: mustprogress uwtable
define void @_ZN6casadi13CodeGenerator5arrayERKNSt7__cxx1112basic_stringIcSt11char_traitsIcESaIcEEES8_xS8_(ptr dead_on_unwind noalias writable sret(%"class.std::__cxx11::basic_string") align 8 %0, ptr noundef nonnull align 8 dereferenceable(32) %1, ptr noundef nonnull align 8 dereferenceable(32) %2, i64 noundef %3, ptr noundef nonnull align 8 dereferenceable(32) %4) #4 align 2 personality ptr @__gxx_personality_v0 {
  %6 = alloca ptr, align 8
  %7 = alloca ptr, align 8
  %8 = alloca ptr, align 8
  %9 = alloca i64, align 8
  %10 = alloca ptr, align 8
  %11 = alloca %"class.std::__cxx11::basic_stringstream", align 8
  %12 = alloca ptr, align 8
  %13 = alloca i32, align 4
  store ptr %0, ptr %6, align 8
  store ptr %1, ptr %7, align 8
  store ptr %2, ptr %8, align 8
  store i64 %3, ptr %9, align 8
  store ptr %4, ptr %10, align 8
  call void @_ZNSt7__cxx1118basic_stringstreamIcSt11char_traitsIcESaIcEEC1Ev(ptr noundef nonnull align 8 dereferenceable(128) %11)
  %14 = getelementptr inbounds i8, ptr %11, i64 16
  %15 = load ptr, ptr %7, align 8
  %16 = invoke noundef nonnull align 8 dereferenceable(8) ptr @_ZStlsIcSt11char_traitsIcESaIcEERSt13basic_ostreamIT_T0_ES7_RKNSt7__cxx1112basic_stringIS4_S5_T1_EE(ptr noundef nonnull align 8 dereferenceable(8) %14, ptr noundef nonnull align 8 dereferenceable(32) %15)
          to label %17 unwind label %31

17:                                               ; preds = %5
  %18 = invoke noundef nonnull align 8 dereferenceable(8) ptr @_ZStlsISt11char_traitsIcEERSt13basic_ostreamIcT_ES5_PKc(ptr noundef nonnull align 8 dereferenceable(8) %16, ptr noundef @.str.124)
          to label %19 unwind label %31

19:                                               ; preds = %17
  %20 = load i64, ptr %9, align 8
  %21 = icmp eq i64 %20, 0
  br i1 %21, label %22, label %35

22:                                               ; preds = %19
  %23 = getelementptr inbounds i8, ptr %11, i64 16
  %24 = invoke noundef nonnull align 8 dereferenceable(8) ptr @_ZStlsISt11char_traitsIcEERSt13basic_ostreamIcT_ES5_PKc(ptr noundef nonnull align 8 dereferenceable(8) %23, ptr noundef @.str.383)
          to label %25 unwind label %31

25:                                               ; preds = %22
  %26 = load ptr, ptr %8, align 8
  %27 = invoke noundef nonnull align 8 dereferenceable(8) ptr @_ZStlsIcSt11char_traitsIcESaIcEERSt13basic_ostreamIT_T0_ES7_RKNSt7__cxx1112basic_stringIS4_S5_T1_EE(ptr noundef nonnull align 8 dereferenceable(8) %24, ptr noundef nonnull align 8 dereferenceable(32) %26)
          to label %28 unwind label %31

28:                                               ; preds = %25
  %29 = invoke noundef nonnull align 8 dereferenceable(8) ptr @_ZStlsISt11char_traitsIcEERSt13basic_ostreamIcT_ES5_PKc(ptr noundef nonnull align 8 dereferenceable(8) %27, ptr noundef @.str.384)
          to label %30 unwind label %31

30:                                               ; preds = %28
  br label %57

31:                                               ; preds = %60, %57, %52, %49, %44, %41, %39, %35, %28, %25, %22, %17, %5
  %32 = landingpad { ptr, i32 }
          cleanup
  %33 = extractvalue { ptr, i32 } %32, 0
  store ptr %33, ptr %12, align 8
  %34 = extractvalue { ptr, i32 } %32, 1
  store i32 %34, ptr %13, align 4
  call void @_ZNSt7__cxx1118basic_stringstreamIcSt11char_traitsIcESaIcEED1Ev(ptr noundef nonnull align 8 dereferenceable(128) %11) #3
  br label %62

35:                                               ; preds = %19
  %36 = getelementptr inbounds i8, ptr %11, i64 16
  %37 = load ptr, ptr %8, align 8
  %38 = invoke noundef nonnull align 8 dereferenceable(8) ptr @_ZStlsIcSt11char_traitsIcESaIcEERSt13basic_ostreamIT_T0_ES7_RKNSt7__cxx1112basic_stringIS4_S5_T1_EE(ptr noundef nonnull align 8 dereferenceable(8) %36, ptr noundef nonnull align 8 dereferenceable(32) %37)
          to label %39 unwind label %31

39:                                               ; preds = %35
  %40 = invoke noundef nonnull align 8 dereferenceable(8) ptr @_ZStlsISt11char_traitsIcEERSt13basic_ostreamIcT_ES5_PKc(ptr noundef nonnull align 8 dereferenceable(8) %38, ptr noundef @.str.377)
          to label %41 unwind label %31

41:                                               ; preds = %39
  %42 = load i64, ptr %9, align 8
  %43 = invoke noundef nonnull align 8 dereferenceable(8) ptr @_ZNSolsEx(ptr noundef nonnull align 8 dereferenceable(8) %40, i64 noundef %42)
          to label %44 unwind label %31

44:                                               ; preds = %41
  %45 = invoke noundef nonnull align 8 dereferenceable(8) ptr @_ZStlsISt11char_traitsIcEERSt13basic_ostreamIcT_ES5_PKc(ptr noundef nonnull align 8 dereferenceable(8) %43, ptr noundef @.str.385)
          to label %46 unwind label %31

46:                                               ; preds = %44
  %47 = load ptr, ptr %10, align 8
  %48 = call noundef zeroext i1 @_ZNKSt7__cxx1112basic_stringIcSt11char_traitsIcESaIcEE5emptyEv(ptr noundef nonnull align 8 dereferenceable(32) %47) #3
  br i1 %48, label %56, label %49

49:                                               ; preds = %46
  %50 = getelementptr inbounds i8, ptr %11, i64 16
  %51 = invoke noundef nonnull align 8 dereferenceable(8) ptr @_ZStlsISt11char_traitsIcEERSt13basic_ostreamIcT_ES5_PKc(ptr noundef nonnull align 8 dereferenceable(8) %50, ptr noundef @.str.386)
          to label %52 unwind label %31

52:                                               ; preds = %49
  %53 = load ptr, ptr %10, align 8
  %54 = invoke noundef nonnull align 8 dereferenceable(8) ptr @_ZStlsIcSt11char_traitsIcESaIcEERSt13basic_ostreamIT_T0_ES7_RKNSt7__cxx1112basic_stringIS4_S5_T1_EE(ptr noundef nonnull align 8 dereferenceable(8) %51, ptr noundef nonnull align 8 dereferenceable(32) %53)
          to label %55 unwind label %31

55:                                               ; preds = %52
  br label %56

56:                                               ; preds = %55, %46
  br label %57

57:                                               ; preds = %56, %30
  %58 = getelementptr inbounds i8, ptr %11, i64 16
  %59 = invoke noundef nonnull align 8 dereferenceable(8) ptr @_ZStlsISt11char_traitsIcEERSt13basic_ostreamIcT_ES5_PKc(ptr noundef nonnull align 8 dereferenceable(8) %58, ptr noundef @.str.127)
          to label %60 unwind label %31

60:                                               ; preds = %57
  invoke void @_ZNKSt7__cxx1118basic_stringstreamIcSt11char_traitsIcESaIcEE3strEv(ptr dead_on_unwind writable sret(%"class.std::__cxx11::basic_string") align 8 %0, ptr noundef nonnull align 8 dereferenceable(128) %11)
          to label %61 unwind label %31

61:                                               ; preds = %60
  call void @_ZNSt7__cxx1118basic_stringstreamIcSt11char_traitsIcESaIcEED1Ev(ptr noundef nonnull align 8 dereferenceable(128) %11) #3
  ret void

62:                                               ; preds = %31
  %63 = load ptr, ptr %12, align 8
  %64 = load i32, ptr %13, align 4
  %65 = insertvalue { ptr, i32 } poison, ptr %63, 0
  %66 = insertvalue { ptr, i32 } %65, i32 %64, 1
  resume { ptr, i32 } %66
}